; Function Attrs: mustprogress uwtable
define void @_ZNK32pxrInternal_v0_24__pxrReserved__10TsKeyFrame8GetValueENS_6TsSideE(ptr dead_on_unwind noalias writable sret(%"class.pxrInternal_v0_24__pxrReserved__::VtValue") align 8 %0, ptr noundef nonnull align 8 dereferenceable(72) %1, i32 noundef %2) local_unnamed_addr #0 align 2 {
  %4 = icmp eq i32 %2, 0
  %5 = load ptr, ptr %1, align 8, !noalias !28
  %. = select i1 %4, i64 120, i64 80
  %6 = getelementptr inbounds i8, ptr %5, i64 %.
  %7 = load ptr, ptr %6, align 8, !noalias !28
  tail call void %7(ptr dead_on_unwind writable sret(%"class.pxrInternal_v0_24__pxrReserved__::VtValue") align 8 %0, ptr noundef nonnull align 8 dereferenceable(16) %1)
  ret void
}